target datalayout = "e-m:e-p270:32:32-p271:32:32-p272:64:64-i64:64-i128:128-f80:128-n8:16:32:64-S128"
target triple = "x86_64-pc-linux-gnu"

%struct.GlobalContext = type { %struct.HTable, ptr, ptr, ptr, ptr, ptr, ptr, ptr, ptr, i8, i32, i32, i32, ptr, ptr, %struct.HTable, %struct.HTable, %struct.Module_, %struct.DeclTable, %struct.DeclTable, %struct.Path_, ptr, ptr, ptr, ptr, ptr, ptr, ptr, [65536 x ptr], ptr, ptr, ptr }
%struct.HTable = type { i32, ptr }
%struct.Module_ = type { ptr, ptr, ptr, i16, i32, ptr, %struct.HTable, ptr, ptr, ptr, ptr, ptr, ptr, ptr, ptr, ptr }
%struct.DeclTable = type { i32, i32, i32, ptr }
%struct.Path_ = type { %union.SourceSpan, ptr, i32 }
%union.SourceSpan = type { i64 }
%struct.Decl_ = type { ptr, ptr, %union.SourceSpan, i64, %union.anon, i32, %union.anon.0, i64, ptr, ptr, ptr, %union.anon.1 }
%union.anon = type { ptr }
%union.anon.0 = type { i16 }
%union.anon.1 = type { %struct.FuncDecl }
%struct.FuncDecl = type { i32, [4 x i8], %struct.Signature_, i32, i32, %union.anon.8 }
%struct.Signature_ = type <{ %struct.CalleeAttributes, i16, i8, i32, i32, [4 x i8], ptr }>
%struct.CalleeAttributes = type { i8 }
%union.anon.8 = type { %struct.anon.9 }
%struct.anon.9 = type { i16, %union.anon.10 }
%union.anon.10 = type { ptr }
%struct.CompilationUnit_ = type { ptr, ptr, ptr, ptr, ptr, ptr, ptr, ptr, ptr, ptr, i32, ptr, i8, i8, i8, i8, ptr, ptr, ptr, ptr, ptr, ptr, ptr, ptr, ptr, ptr, ptr, ptr, %struct.HTable, i32, ptr, ptr, %struct.anon.88 }
%struct.anon.88 = type { ptr, ptr }
%struct.NameResolve = type { ptr, ptr, ptr, ptr, %union.SourceSpan, ptr, i8, i8 }

@global_context = external global %struct.GlobalContext, align 8
@poisoned_decl = external global ptr, align 8
@.str.5 = private unnamed_addr constant [69 x i8] c"Function and variables must be prefixed with a path, e.g. 'foo::%s'.\00", align 1

; Function Attrs: nounwind uwtable
define dso_local ptr @unit_resolve_parameterized_symbol(ptr noundef %0, ptr noundef %1) #0 {
  %3 = alloca ptr, align 8
  %4 = alloca i32, align 4
  %5 = alloca ptr, align 8
  %6 = alloca ptr, align 8
  %7 = alloca ptr, align 8
  %8 = alloca ptr, align 8
  store ptr %0, ptr %6, align 8
  store ptr %1, ptr %7, align 8
  %9 = load ptr, ptr %7, align 8
  %10 = getelementptr inbounds %struct.NameResolve, ptr %9, i32 0, i32 0
  store ptr null, ptr %10, align 8
  %11 = load ptr, ptr %7, align 8
  %12 = getelementptr inbounds %struct.NameResolve, ptr %11, i32 0, i32 1
  store ptr null, ptr %12, align 8
  %13 = load ptr, ptr %7, align 8
  %14 = getelementptr inbounds %struct.NameResolve, ptr %13, i32 0, i32 6
  store i8 0, ptr %14, align 8
  %15 = load ptr, ptr %6, align 8
  %16 = getelementptr inbounds %struct.CompilationUnit_, ptr %15, i32 0, i32 2
  %17 = load ptr, ptr %16, align 8
  %18 = load ptr, ptr %7, align 8
  %19 = call ptr @sema_find_decl_in_private_imports(ptr noundef %17, ptr noundef %18, i1 noundef zeroext true)
  store ptr %19, ptr %8, align 8
  %20 = load ptr, ptr %8, align 8
  %21 = icmp ne ptr %20, null
  br i1 %21, label %27, label %22

22:                                               ; preds = %2
  %23 = load ptr, ptr %6, align 8
  %24 = load ptr, ptr getelementptr inbounds (%struct.GlobalContext, ptr @global_context, i32 0, i32 3), align 8
  %25 = load ptr, ptr %7, align 8
  %26 = call ptr @sema_find_decl_in_global(ptr noundef %23, ptr noundef getelementptr inbounds (%struct.GlobalContext, ptr @global_context, i32 0, i32 19), ptr noundef %24, ptr noundef %25, i1 noundef zeroext true)
  store ptr %26, ptr %8, align 8
  br label %27

27:                                               ; preds = %22, %2
  %28 = load ptr, ptr %8, align 8
  %29 = icmp ne ptr %28, null
  br i1 %29, label %30, label %35

30:                                               ; preds = %27
  %31 = load ptr, ptr %7, align 8
  %32 = getelementptr inbounds %struct.NameResolve, ptr %31, i32 0, i32 0
  %33 = load ptr, ptr %32, align 8
  %34 = icmp ne ptr %33, null
  br i1 %34, label %35, label %46

35:                                               ; preds = %30, %27
  %36 = load ptr, ptr %7, align 8
  %37 = getelementptr inbounds %struct.NameResolve, ptr %36, i32 0, i32 7
  %38 = load i8, ptr %37, align 1
  %39 = trunc i8 %38 to i1
  br i1 %39, label %40, label %42

40:                                               ; preds = %35
  %41 = load ptr, ptr @poisoned_decl, align 8
  store ptr %41, ptr %5, align 8
  br label %96

42:                                               ; preds = %35
  %43 = load ptr, ptr %8, align 8
  %44 = load ptr, ptr %7, align 8
  call void @sema_report_error_on_decl(ptr noundef %43, ptr noundef %44)
  %45 = load ptr, ptr @poisoned_decl, align 8
  store ptr %45, ptr %5, align 8
  br label %96

46:                                               ; preds = %30
  %47 = load ptr, ptr %8, align 8
  store ptr %47, ptr %3, align 8
  %48 = load ptr, ptr %3, align 8
  %49 = getelementptr inbounds %struct.Decl_, ptr %48, i32 0, i32 3
  %50 = load i64, ptr %49, align 8
  %51 = and i64 %50, 127
  %52 = trunc i64 %51 to i32
  store i32 %52, ptr %4, align 4
  %53 = load i32, ptr %4, align 4
  %54 = icmp eq i32 %53, 25
  %55 = zext i1 %54 to i32
  %56 = load i32, ptr %4, align 4
  %57 = icmp eq i32 %56, 23
  %58 = zext i1 %57 to i32
  %59 = or i32 %55, %58
  %60 = load i32, ptr %4, align 4
  %61 = icmp eq i32 %60, 2
  %62 = zext i1 %61 to i32
  %63 = or i32 %59, %62
  %64 = load i32, ptr %4, align 4
  %65 = icmp eq i32 %64, 11
  %66 = zext i1 %65 to i32
  %67 = or i32 %63, %66
  %68 = load i32, ptr %4, align 4
  %69 = icmp eq i32 %68, 10
  %70 = zext i1 %69 to i32
  %71 = or i32 %67, %70
  %72 = icmp ne i32 %71, 0
  br i1 %72, label %94, label %73

73:                                               ; preds = %46
  %74 = load ptr, ptr %7, align 8
  %75 = getelementptr inbounds %struct.NameResolve, ptr %74, i32 0, i32 3
  %76 = load ptr, ptr %75, align 8
  %77 = icmp ne ptr %76, null
  br i1 %77, label %94, label %78

78:                                               ; preds = %73
  %79 = load ptr, ptr %7, align 8
  %80 = getelementptr inbounds %struct.NameResolve, ptr %79, i32 0, i32 7
  %81 = load i8, ptr %80, align 1
  %82 = trunc i8 %81 to i1
  br i1 %82, label %83, label %85

83:                                               ; preds = %78
  %84 = load ptr, ptr @poisoned_decl, align 8
  store ptr %84, ptr %5, align 8
  br label %96

85:                                               ; preds = %78
  %86 = load ptr, ptr %7, align 8
  %87 = getelementptr inbounds %struct.NameResolve, ptr %86, i32 0, i32 4
  %88 = load ptr, ptr %7, align 8
  %89 = getelementptr inbounds %struct.NameResolve, ptr %88, i32 0, i32 5
  %90 = load ptr, ptr %89, align 8
  %91 = getelementptr inbounds %union.SourceSpan, ptr %87, i32 0, i32 0
  %92 = load i64, ptr %91, align 8
  call void (i64, ptr, ...) @sema_error_at(i64 %92, ptr noundef @.str.5, ptr noundef %90)
  %93 = load ptr, ptr @poisoned_decl, align 8
  store ptr %93, ptr %5, align 8
  br label %96

94:                                               ; preds = %73, %46
  %95 = load ptr, ptr %8, align 8
  store ptr %95, ptr %5, align 8
  br label %96

96:                                               ; preds = %94, %85, %83, %42, %40
  %97 = load ptr, ptr %5, align 8
  ret ptr %97
}