; Function Attrs: nounwind uwtable
define dso_local ptr @unit_resolve_parameterized_symbol(ptr nocapture noundef readonly %0, ptr nocapture noundef %1) local_unnamed_addr #2 {
  %3 = getelementptr inbounds i8, ptr %1, i64 48
  store i8 0, ptr %3, align 8
  %4 = getelementptr inbounds i8, ptr %0, i64 16
  tail call void @llvm.memset.p0.i64(ptr noundef nonnull align 8 dereferenceable(16) %1, i8 0, i64 16, i1 false)
  %5 = load ptr, ptr %4, align 8
  %6 = tail call fastcc ptr @sema_find_decl_in_private_imports(ptr noundef %5, ptr noundef nonnull %1, i1 noundef zeroext true)
  %.not = icmp eq ptr %6, null
  br i1 %.not, label %7, label %.thread

7:                                                ; preds = %2
  %8 = load ptr, ptr getelementptr inbounds (%struct.GlobalContext, ptr @global_context, i64 0, i32 3), align 8
  %9 = tail call fastcc ptr @sema_find_decl_in_global(ptr noundef nonnull %0, ptr noundef nonnull getelementptr inbounds (%struct.GlobalContext, ptr @global_context, i64 0, i32 19), ptr noundef %8, ptr noundef nonnull %1, i1 noundef zeroext true)
  %.not27 = icmp eq ptr %9, null
  br i1 %.not27, label %11, label %.thread

.thread:                                          ; preds = %2, %7
  %.032 = phi ptr [ %9, %7 ], [ %6, %2 ]
  %10 = load ptr, ptr %1, align 8
  %.not28 = icmp eq ptr %10, null
  br i1 %.not28, label %19, label %11

11:                                               ; preds = %.thread, %7
  %.033 = phi ptr [ %.032, %.thread ], [ null, %7 ]
  %12 = getelementptr inbounds i8, ptr %1, i64 49
  %13 = load i8, ptr %12, align 1
  %14 = trunc i8 %13 to i1
  br i1 %14, label %15, label %17

15:                                               ; preds = %11
  %16 = load ptr, ptr @poisoned_decl, align 8
  br label %41

17:                                               ; preds = %11
  tail call fastcc void @sema_report_error_on_decl(ptr noundef %.033, ptr noundef nonnull %1)
  %18 = load ptr, ptr @poisoned_decl, align 8
  br label %41

19:                                               ; preds = %.thread
  %20 = getelementptr inbounds i8, ptr %.032, i64 24
  %21 = load i64, ptr %20, align 8
  %.fr = freeze i64 %21
  %22 = trunc i64 %.fr to i32
  %23 = and i32 %22, 126
  %24 = icmp eq i32 %23, 10
  br i1 %24, label %41, label %switch.early.test

switch.early.test:                                ; preds = %19
  %25 = and i32 %22, 127
  switch i32 %25, label %26 [
    i32 25, label %41
    i32 23, label %41
    i32 2, label %41
  ]

26:                                               ; preds = %switch.early.test
  %27 = getelementptr inbounds i8, ptr %1, i64 24
  %28 = load ptr, ptr %27, align 8
  %.not29 = icmp eq ptr %28, null
  br i1 %.not29, label %29, label %41

29:                                               ; preds = %26
  %30 = getelementptr inbounds i8, ptr %1, i64 49
  %31 = load i8, ptr %30, align 1
  %32 = trunc i8 %31 to i1
  br i1 %32, label %33, label %35

33:                                               ; preds = %29
  %34 = load ptr, ptr @poisoned_decl, align 8
  br label %41

35:                                               ; preds = %29
  %36 = getelementptr inbounds i8, ptr %1, i64 32
  %37 = getelementptr inbounds i8, ptr %1, i64 40
  %38 = load ptr, ptr %37, align 8
  %39 = load i64, ptr %36, align 8
  tail call void (i64, ptr, ...) @sema_error_at(i64 %39, ptr noundef nonnull @.str.5, ptr noundef %38) #10
  %40 = load ptr, ptr @poisoned_decl, align 8
  br label %41

41:                                               ; preds = %26, %19, %switch.early.test, %switch.early.test, %switch.early.test, %35, %33, %17, %15
  %.025 = phi ptr [ %16, %15 ], [ %18, %17 ], [ %34, %33 ], [ %40, %35 ], [ %.032, %switch.early.test ], [ %.032, %switch.early.test ], [ %.032, %switch.early.test ], [ %.032, %19 ], [ %.032, %26 ]
  ret ptr %.025
}